target datalayout = "e-m:e-p270:32:32-p271:32:32-p272:64:64-i64:64-i128:128-f80:128-n8:16:32:64-S128"
target triple = "x86_64-unknown-linux-gnu"

%"class.facebook::jsi::Value" = type { i32, %"union.facebook::jsi::Value::Data" }
%"union.facebook::jsi::Value::Data" = type { double }
%"class.std::__cxx11::basic_string" = type { %"struct.std::__cxx11::basic_string<char>::_Alloc_hider", i64, %union.anon }
%"struct.std::__cxx11::basic_string<char>::_Alloc_hider" = type { ptr }
%union.anon = type { i64, [8 x i8] }
%"class.facebook::jsi::Pointer" = type { ptr }
%"class.facebook::jsi::String" = type { %"class.facebook::jsi::Pointer" }

@_ZTIN8facebook3jsi7JSErrorE = constant { ptr, ptr, ptr } { ptr getelementptr inbounds (ptr, ptr @_ZTVN10__cxxabiv120__si_class_type_infoE, i64 2), ptr @_ZTSN8facebook3jsi7JSErrorE, ptr @_ZTIN8facebook3jsi12JSIExceptionE }, align 8
@.str.12 = private unnamed_addr constant [10 x i8] c"Value is \00", align 1
@.str.17 = private unnamed_addr constant [20 x i8] c", expected a String\00", align 1
@_ZN8facebook3jsi7JSErrorC1ERNS0_7RuntimeENSt7__cxx1112basic_stringIcSt11char_traitsIcESaIcEEE = unnamed_addr alias void (ptr, ptr, ptr), ptr @_ZN8facebook3jsi7JSErrorC2ERNS0_7RuntimeENSt7__cxx1112basic_stringIcSt11char_traitsIcESaIcEEE
@_ZN8facebook3jsi7JSErrorD1Ev = unnamed_addr alias void (ptr), ptr @_ZN8facebook3jsi7JSErrorD2Ev

; Function Attrs: mustprogress nounwind uwtable
define linkonce_odr void @_ZN8facebook3jsi7PointerC2EPNS0_7Runtime12PointerValueE(ptr noundef nonnull align 8 dereferenceable(8) %this, ptr noundef %ptr) unnamed_addr #0 comdat align 2 {
entry:
  %this.addr = alloca ptr, align 8
  %ptr.addr = alloca ptr, align 8
  store ptr %this, ptr %this.addr, align 8
  store ptr %ptr, ptr %ptr.addr, align 8
  %this1 = load ptr, ptr %this.addr, align 8
  %ptr_ = getelementptr inbounds %"class.facebook::jsi::Pointer", ptr %this1, i32 0, i32 0
  %0 = load ptr, ptr %ptr.addr, align 8
  store ptr %0, ptr %ptr_, align 8
  ret void
}

; Function Attrs: mustprogress nounwind uwtable
define linkonce_odr void @_ZN8facebook3jsi6StringCI2NS0_7PointerEEPNS0_7Runtime12PointerValueE(ptr noundef nonnull align 8 dereferenceable(8) %this, ptr noundef %0) unnamed_addr #0 comdat align 2 {
entry:
  %this.addr = alloca ptr, align 8
  %.addr = alloca ptr, align 8
  store ptr %this, ptr %this.addr, align 8
  store ptr %0, ptr %.addr, align 8
  %this1 = load ptr, ptr %this.addr, align 8
  %1 = load ptr, ptr %.addr, align 8
  call void @_ZN8facebook3jsi7PointerC2EPNS0_7Runtime12PointerValueE(ptr noundef nonnull align 8 dereferenceable(8) %this1, ptr noundef %1)
  ret void
}

; Function Attrs: mustprogress uwtable
define linkonce_odr void @_ZNKR8facebook3jsi5Value9getStringERNS0_7RuntimeE(ptr noalias sret(%"class.facebook::jsi::String") align 8 %agg.result, ptr noundef nonnull align 8 dereferenceable(16) %this, ptr noundef nonnull align 8 dereferenceable(8) %runtime) #2 comdat align 2 {
entry:
  %result.ptr = alloca ptr, align 8
  %this.addr = alloca ptr, align 8
  %runtime.addr = alloca ptr, align 8
  store ptr %agg.result, ptr %result.ptr, align 8
  store ptr %this, ptr %this.addr, align 8
  store ptr %runtime, ptr %runtime.addr, align 8
  %this1 = load ptr, ptr %this.addr, align 8
  %0 = load ptr, ptr %runtime.addr, align 8
  %data_ = getelementptr inbounds %"class.facebook::jsi::Value", ptr %this1, i32 0, i32 1
  %ptr_ = getelementptr inbounds %"class.facebook::jsi::Pointer", ptr %data_, i32 0, i32 0
  %1 = load ptr, ptr %ptr_, align 8
  %vtable = load ptr, ptr %0, align 8
  %vfn = getelementptr inbounds ptr, ptr %vtable, i64 12
  %2 = load ptr, ptr %vfn, align 8
  %call = call noundef ptr %2(ptr noundef nonnull align 8 dereferenceable(8) %0, ptr noundef %1)
  call void @_ZN8facebook3jsi6StringCI2NS0_7PointerEEPNS0_7Runtime12PointerValueE(ptr noundef nonnull align 8 dereferenceable(8) %agg.result, ptr noundef %call)
  ret void
}

; Function Attrs: mustprogress uwtable
define linkonce_odr void @_ZStplIcSt11char_traitsIcESaIcEENSt7__cxx1112basic_stringIT_T0_T1_EEOS8_PKS5_(ptr noalias sret(%"class.std::__cxx11::basic_string") align 8 %agg.result, ptr noundef nonnull align 8 dereferenceable(32) %__lhs, ptr noundef %__rhs) #2 comdat {
entry:
  %result.ptr = alloca ptr, align 8
  %__lhs.addr = alloca ptr, align 8
  %__rhs.addr = alloca ptr, align 8
  store ptr %agg.result, ptr %result.ptr, align 8
  store ptr %__lhs, ptr %__lhs.addr, align 8
  store ptr %__rhs, ptr %__rhs.addr, align 8
  %0 = load ptr, ptr %__lhs.addr, align 8
  %1 = load ptr, ptr %__rhs.addr, align 8
  %call = call noundef nonnull align 8 dereferenceable(32) ptr @_ZNSt7__cxx1112basic_stringIcSt11char_traitsIcESaIcEE6appendEPKc(ptr noundef nonnull align 8 dereferenceable(32) %0, ptr noundef %1)
  call void @_ZNSt7__cxx1112basic_stringIcSt11char_traitsIcESaIcEEC1EOS4_(ptr noundef nonnull align 8 dereferenceable(32) %agg.result, ptr noundef nonnull align 8 dereferenceable(32) %call) #6
  ret void
}

; Function Attrs: mustprogress uwtable
define linkonce_odr void @_ZStplIcSt11char_traitsIcESaIcEENSt7__cxx1112basic_stringIT_T0_T1_EEPKS5_OS8_(ptr noalias sret(%"class.std::__cxx11::basic_string") align 8 %agg.result, ptr noundef %__lhs, ptr noundef nonnull align 8 dereferenceable(32) %__rhs) #2 comdat {
entry:
  %result.ptr = alloca ptr, align 8
  %__lhs.addr = alloca ptr, align 8
  %__rhs.addr = alloca ptr, align 8
  store ptr %agg.result, ptr %result.ptr, align 8
  store ptr %__lhs, ptr %__lhs.addr, align 8
  store ptr %__rhs, ptr %__rhs.addr, align 8
  %0 = load ptr, ptr %__rhs.addr, align 8
  %1 = load ptr, ptr %__lhs.addr, align 8
  %call = call noundef nonnull align 8 dereferenceable(32) ptr @_ZNSt7__cxx1112basic_stringIcSt11char_traitsIcESaIcEE6insertEmPKc(ptr noundef nonnull align 8 dereferenceable(32) %0, i64 noundef 0, ptr noundef %1)
  call void @_ZNSt7__cxx1112basic_stringIcSt11char_traitsIcESaIcEEC1EOS4_(ptr noundef nonnull align 8 dereferenceable(32) %agg.result, ptr noundef nonnull align 8 dereferenceable(32) %call) #6
  ret void
}

; Function Attrs: mustprogress nounwind uwtable
define linkonce_odr noundef zeroext i1 @_ZNK8facebook3jsi5Value8isStringEv(ptr noundef nonnull align 8 dereferenceable(16) %this) #0 comdat align 2 {
entry:
  %this.addr = alloca ptr, align 8
  store ptr %this, ptr %this.addr, align 8
  %this1 = load ptr, ptr %this.addr, align 8
  %kind_ = getelementptr inbounds %"class.facebook::jsi::Value", ptr %this1, i32 0, i32 0
  %0 = load i32, ptr %kind_, align 8
  %cmp = icmp eq i32 %0, 6
  ret i1 %cmp
}

; Function Attrs: mustprogress uwtable
define void @_ZNKR8facebook3jsi5Value8asStringERNS0_7RuntimeE(ptr noalias sret(%"class.facebook::jsi::String") align 8 %agg.result, ptr noundef nonnull align 8 dereferenceable(16) %this, ptr noundef nonnull align 8 dereferenceable(8) %rt) #2 align 2 personality ptr @__gxx_personality_v0 {
entry:
  %result.ptr = alloca ptr, align 8
  %this.addr = alloca ptr, align 8
  %rt.addr = alloca ptr, align 8
  %agg.tmp = alloca %"class.std::__cxx11::basic_string", align 8
  %ref.tmp = alloca %"class.std::__cxx11::basic_string", align 8
  %ref.tmp2 = alloca %"class.std::__cxx11::basic_string", align 8
  %exn.slot = alloca ptr, align 8
  %ehselector.slot = alloca i32, align 4
  %cleanup.isactive = alloca i1, align 1
  store ptr %agg.result, ptr %result.ptr, align 8
  store ptr %this, ptr %this.addr, align 8
  store ptr %rt, ptr %rt.addr, align 8
  %this1 = load ptr, ptr %this.addr, align 8
  %call = call noundef zeroext i1 @_ZNK8facebook3jsi5Value8isStringEv(ptr noundef nonnull align 8 dereferenceable(16) %this1)
  br i1 %call, label %if.end, label %if.then

if.then:                                          ; preds = %entry
  store i1 true, ptr %cleanup.isactive, align 1
  %exception = call ptr @__cxa_allocate_exception(i64 120) #6
  %0 = load ptr, ptr %rt.addr, align 8
  %1 = load ptr, ptr %rt.addr, align 8
  invoke void @_ZN8facebook3jsi12_GLOBAL__N_112kindToStringB5cxx11ERKNS0_5ValueEPNS0_7RuntimeE(ptr sret(%"class.std::__cxx11::basic_string") align 8 %ref.tmp2, ptr noundef nonnull align 8 dereferenceable(16) %this1, ptr noundef %1)
          to label %invoke.cont unwind label %lpad

invoke.cont:                                      ; preds = %if.then
  invoke void @_ZStplIcSt11char_traitsIcESaIcEENSt7__cxx1112basic_stringIT_T0_T1_EEPKS5_OS8_(ptr sret(%"class.std::__cxx11::basic_string") align 8 %ref.tmp, ptr noundef @.str.12, ptr noundef nonnull align 8 dereferenceable(32) %ref.tmp2)
          to label %invoke.cont4 unwind label %lpad3

invoke.cont4:                                     ; preds = %invoke.cont
  invoke void @_ZStplIcSt11char_traitsIcESaIcEENSt7__cxx1112basic_stringIT_T0_T1_EEOS8_PKS5_(ptr sret(%"class.std::__cxx11::basic_string") align 8 %agg.tmp, ptr noundef nonnull align 8 dereferenceable(32) %ref.tmp, ptr noundef @.str.17)
          to label %invoke.cont6 unwind label %lpad5

invoke.cont6:                                     ; preds = %invoke.cont4
  invoke void @_ZN8facebook3jsi7JSErrorC1ERNS0_7RuntimeENSt7__cxx1112basic_stringIcSt11char_traitsIcESaIcEEE(ptr noundef nonnull align 8 dereferenceable(120) %exception, ptr noundef nonnull align 8 dereferenceable(8) %0, ptr noundef %agg.tmp)
          to label %invoke.cont8 unwind label %lpad7

invoke.cont8:                                     ; preds = %invoke.cont6
  store i1 false, ptr %cleanup.isactive, align 1
  invoke void @__cxa_throw(ptr %exception, ptr @_ZTIN8facebook3jsi7JSErrorE, ptr @_ZN8facebook3jsi7JSErrorD1Ev) #16
          to label %unreachable unwind label %lpad7

lpad:                                             ; preds = %if.then
  %2 = landingpad { ptr, i32 }
          cleanup
  %3 = extractvalue { ptr, i32 } %2, 0
  store ptr %3, ptr %exn.slot, align 8
  %4 = extractvalue { ptr, i32 } %2, 1
  store i32 %4, ptr %ehselector.slot, align 4
  br label %ehcleanup10

lpad3:                                            ; preds = %invoke.cont
  %5 = landingpad { ptr, i32 }
          cleanup
  %6 = extractvalue { ptr, i32 } %5, 0
  store ptr %6, ptr %exn.slot, align 8
  %7 = extractvalue { ptr, i32 } %5, 1
  store i32 %7, ptr %ehselector.slot, align 4
  br label %ehcleanup9

lpad5:                                            ; preds = %invoke.cont4
  %8 = landingpad { ptr, i32 }
          cleanup
  %9 = extractvalue { ptr, i32 } %8, 0
  store ptr %9, ptr %exn.slot, align 8
  %10 = extractvalue { ptr, i32 } %8, 1
  store i32 %10, ptr %ehselector.slot, align 4
  br label %ehcleanup

lpad7:                                            ; preds = %invoke.cont8, %invoke.cont6
  %11 = landingpad { ptr, i32 }
          cleanup
  %12 = extractvalue { ptr, i32 } %11, 0
  store ptr %12, ptr %exn.slot, align 8
  %13 = extractvalue { ptr, i32 } %11, 1
  store i32 %13, ptr %ehselector.slot, align 4
  call void @_ZNSt7__cxx1112basic_stringIcSt11char_traitsIcESaIcEED1Ev(ptr noundef nonnull align 8 dereferenceable(32) %agg.tmp) #6
  br label %ehcleanup

ehcleanup:                                        ; preds = %lpad7, %lpad5
  call void @_ZNSt7__cxx1112basic_stringIcSt11char_traitsIcESaIcEED1Ev(ptr noundef nonnull align 8 dereferenceable(32) %ref.tmp) #6
  br label %ehcleanup9

ehcleanup9:                                       ; preds = %ehcleanup, %lpad3
  call void @_ZNSt7__cxx1112basic_stringIcSt11char_traitsIcESaIcEED1Ev(ptr noundef nonnull align 8 dereferenceable(32) %ref.tmp2) #6
  br label %ehcleanup10

ehcleanup10:                                      ; preds = %ehcleanup9, %lpad
  %cleanup.is_active = load i1, ptr %cleanup.isactive, align 1
  br i1 %cleanup.is_active, label %cleanup.action, label %cleanup.done

cleanup.action:                                   ; preds = %ehcleanup10
  call void @__cxa_free_exception(ptr %exception) #6
  br label %cleanup.done

cleanup.done:                                     ; preds = %cleanup.action, %ehcleanup10
  br label %eh.resume

if.end:                                           ; preds = %entry
  %14 = load ptr, ptr %rt.addr, align 8
  call void @_ZNKR8facebook3jsi5Value9getStringERNS0_7RuntimeE(ptr sret(%"class.facebook::jsi::String") align 8 %agg.result, ptr noundef nonnull align 8 dereferenceable(16) %this1, ptr noundef nonnull align 8 dereferenceable(8) %14)
  ret void

eh.resume:                                        ; preds = %cleanup.done
  %exn = load ptr, ptr %exn.slot, align 8
  %sel = load i32, ptr %ehselector.slot, align 4
  %lpad.val = insertvalue { ptr, i32 } poison, ptr %exn, 0
  %lpad.val11 = insertvalue { ptr, i32 } %lpad.val, i32 %sel, 1
  resume { ptr, i32 } %lpad.val11

unreachable:                                      ; preds = %invoke.cont8
  unreachable
}